target datalayout = "e-m:e-p270:32:32-p271:32:32-p272:64:64-i64:64-i128:128-f80:128-n8:16:32:64-S128"
target triple = "x86_64-pc-linux-gnu"

%struct.stat = type { i64, i64, i64, i32, i32, i32, i32, i64, i64, i64, i64, %struct.timespec, %struct.timespec, %struct.timespec, [3 x i64] }
%struct.timespec = type { i64, i64 }
%struct.dirent = type { i64, i64, i16, i8, [256 x i8] }

@.str = private unnamed_addr constant [14 x i8] c"/proc/net/tcp\00", align 1
@.str.1 = private unnamed_addr constant [15 x i8] c"/proc/net/tcp6\00", align 1
@.str.4 = private unnamed_addr constant [14 x i8] c"/proc/self/fd\00", align 1
@.str.5 = private unnamed_addr constant [52 x i8] c"callerid_get_own_netinfo: opendir failed for %s: %m\00", align 1
@.str.6 = private unnamed_addr constant [2 x i8] c".\00", align 1
@.str.7 = private unnamed_addr constant [6 x i8] c"%s/%s\00", align 1
@.str.8 = private unnamed_addr constant [38 x i8] c"callerid_get_own_netinfo: checking %s\00", align 1
@.str.9 = private unnamed_addr constant [23 x i8] c"stat failed for %s: %m\00", align 1
@.str.10 = private unnamed_addr constant [45 x i8] c"callerid_get_own_netinfo: checking socket %s\00", align 1

; Function Attrs: nounwind uwtable
define dso_local i32 @callerid_find_conn_by_inode(ptr noundef %0, i64 noundef %1) #0 {
  %3 = alloca i32, align 4
  %4 = alloca ptr, align 8
  %5 = alloca i64, align 8
  %6 = alloca i32, align 4
  %7 = alloca i32, align 4
  store ptr %0, ptr %4, align 8
  store i64 %1, ptr %5, align 8
  call void @llvm.lifetime.start.p0(i64 4, ptr %6) #10
  %8 = load ptr, ptr %4, align 8
  %9 = call i32 @_find_match_in_tcp_file(ptr noundef %8, ptr noundef %5, i32 noundef 2, ptr noundef @.str, ptr noundef @_match_inode)
  store i32 %9, ptr %6, align 4
  %10 = load i32, ptr %6, align 4
  %11 = icmp eq i32 %10, 0
  br i1 %11, label %12, label %13

12:                                               ; preds = %2
  store i32 0, ptr %3, align 4
  store i32 1, ptr %7, align 4
  br label %20

13:                                               ; preds = %2
  %14 = load ptr, ptr %4, align 8
  %15 = call i32 @_find_match_in_tcp_file(ptr noundef %14, ptr noundef %5, i32 noundef 10, ptr noundef @.str.1, ptr noundef @_match_inode)
  store i32 %15, ptr %6, align 4
  %16 = load i32, ptr %6, align 4
  %17 = icmp eq i32 %16, 0
  br i1 %17, label %18, label %19

18:                                               ; preds = %13
  store i32 0, ptr %3, align 4
  store i32 1, ptr %7, align 4
  br label %20

19:                                               ; preds = %13
  store i32 -1, ptr %3, align 4
  store i32 1, ptr %7, align 4
  br label %20

20:                                               ; preds = %19, %18, %12
  call void @llvm.lifetime.end.p0(i64 4, ptr %6) #10
  %21 = load i32, ptr %3, align 4
  ret i32 %21
}

; Function Attrs: nounwind uwtable
define dso_local i32 @callerid_get_own_netinfo(ptr noundef %0) #0 {
  %2 = alloca i32, align 4
  %3 = alloca ptr, align 8
  %4 = alloca ptr, align 8
  %5 = alloca ptr, align 8
  %6 = alloca ptr, align 8
  %7 = alloca [4096 x i8], align 16
  %8 = alloca i32, align 4
  %9 = alloca %struct.stat, align 8
  %10 = alloca i32, align 4
  store ptr %0, ptr %3, align 8
  call void @llvm.lifetime.start.p0(i64 8, ptr %4) #10
  call void @llvm.lifetime.start.p0(i64 8, ptr %5) #10
  call void @llvm.lifetime.start.p0(i64 8, ptr %6) #10
  store ptr @.str.4, ptr %6, align 8
  call void @llvm.lifetime.start.p0(i64 4096, ptr %7) #10
  call void @llvm.lifetime.start.p0(i64 4, ptr %8) #10
  store i32 -1, ptr %8, align 4
  call void @llvm.lifetime.start.p0(i64 144, ptr %9) #10
  %11 = load ptr, ptr %6, align 8
  %12 = call ptr @opendir(ptr noundef %11)
  store ptr %12, ptr %4, align 8
  %13 = icmp eq ptr %12, null
  br i1 %13, label %14, label %18

14:                                               ; preds = %1
  %15 = load ptr, ptr %6, align 8
  %16 = call i32 (ptr, ...) @error(ptr noundef @.str.5, ptr noundef %15)
  %17 = load i32, ptr %8, align 4
  store i32 %17, ptr %2, align 4
  store i32 1, ptr %10, align 4
  br label %99

18:                                               ; preds = %1
  br label %19

19:                                               ; preds = %94, %68, %41, %31, %18
  br label %20

20:                                               ; preds = %19
  %21 = load ptr, ptr %4, align 8
  %22 = call ptr @readdir(ptr noundef %21)
  store ptr %22, ptr %5, align 8
  %23 = icmp ne ptr %22, null
  br i1 %23, label %25, label %24

24:                                               ; preds = %20
  br label %95

25:                                               ; preds = %20
  %26 = load ptr, ptr %5, align 8
  %27 = getelementptr inbounds nuw %struct.dirent, ptr %26, i32 0, i32 4
  %28 = getelementptr inbounds [256 x i8], ptr %27, i64 0, i64 0
  %29 = call i32 @xstrncmp(ptr noundef %28, ptr noundef @.str.6, i64 noundef 1)
  %30 = icmp ne i32 %29, 0
  br i1 %30, label %32, label %31

31:                                               ; preds = %25
  br label %19, !llvm.loop !8

32:                                               ; preds = %25
  br label %33

33:                                               ; preds = %32
  %34 = getelementptr inbounds [4096 x i8], ptr %7, i64 0, i64 0
  %35 = load ptr, ptr %6, align 8
  %36 = load ptr, ptr %5, align 8
  %37 = getelementptr inbounds nuw %struct.dirent, ptr %36, i32 0, i32 4
  %38 = getelementptr inbounds [256 x i8], ptr %37, i64 0, i64 0
  %39 = call i32 (ptr, i64, ptr, ...) @snprintf(ptr noundef %34, i64 noundef 4096, ptr noundef @.str.7, ptr noundef %35, ptr noundef %38) #10
  %40 = icmp sge i32 %39, 4096
  br i1 %40, label %41, label %42

41:                                               ; preds = %33
  br label %19, !llvm.loop !8

42:                                               ; preds = %33
  br label %43

43:                                               ; preds = %42
  br label %44

44:                                               ; preds = %43
  %45 = call i32 @get_log_level()
  %46 = icmp sge i32 %45, 7
  br i1 %46, label %47, label %49

47:                                               ; preds = %44
  %48 = getelementptr inbounds [4096 x i8], ptr %7, i64 0, i64 0
  call void (i32, ptr, ...) @log_var(i32 noundef 7, ptr noundef @.str.8, ptr noundef %48)
  br label %49

49:                                               ; preds = %47, %44
  br label %50

50:                                               ; preds = %49
  br label %51

51:                                               ; preds = %50
  br label %52

52:                                               ; preds = %51
  br label %53

53:                                               ; preds = %52
  %54 = getelementptr inbounds [4096 x i8], ptr %7, i64 0, i64 0
  %55 = call i32 @stat(ptr noundef %54, ptr noundef %9) #10
  %56 = icmp ne i32 %55, 0
  br i1 %56, label %57, label %69

57:                                               ; preds = %53
  br label %58

58:                                               ; preds = %57
  br label %59

59:                                               ; preds = %58
  %60 = call i32 @get_log_level()
  %61 = icmp sge i32 %60, 7
  br i1 %61, label %62, label %64

62:                                               ; preds = %59
  %63 = getelementptr inbounds [4096 x i8], ptr %7, i64 0, i64 0
  call void (i32, ptr, ...) @log_var(i32 noundef 7, ptr noundef @.str.9, ptr noundef %63)
  br label %64

64:                                               ; preds = %62, %59
  br label %65

65:                                               ; preds = %64
  br label %66

66:                                               ; preds = %65
  br label %67

67:                                               ; preds = %66
  br label %68

68:                                               ; preds = %67
  br label %19, !llvm.loop !8

69:                                               ; preds = %53
  %70 = getelementptr inbounds nuw %struct.stat, ptr %9, i32 0, i32 3
  %71 = load i32, ptr %70, align 8
  %72 = and i32 %71, 61440
  %73 = icmp eq i32 %72, 49152
  br i1 %73, label %74, label %94

74:                                               ; preds = %69
  br label %75

75:                                               ; preds = %74
  br label %76

76:                                               ; preds = %75
  %77 = call i32 @get_log_level()
  %78 = icmp sge i32 %77, 7
  br i1 %78, label %79, label %81

79:                                               ; preds = %76
  %80 = getelementptr inbounds [4096 x i8], ptr %7, i64 0, i64 0
  call void (i32, ptr, ...) @log_var(i32 noundef 7, ptr noundef @.str.10, ptr noundef %80)
  br label %81

81:                                               ; preds = %79, %76
  br label %82

82:                                               ; preds = %81
  br label %83

83:                                               ; preds = %82
  br label %84

84:                                               ; preds = %83
  br label %85

85:                                               ; preds = %84
  %86 = load ptr, ptr %3, align 8
  %87 = getelementptr inbounds nuw %struct.stat, ptr %9, i32 0, i32 1
  %88 = load i64, ptr %87, align 8
  %89 = call i32 @callerid_find_conn_by_inode(ptr noundef %86, i64 noundef %88)
  store i32 %89, ptr %8, align 4
  %90 = load i32, ptr %8, align 4
  %91 = icmp eq i32 %90, 0
  br i1 %91, label %92, label %93

92:                                               ; preds = %85
  br label %95

93:                                               ; preds = %85
  br label %94

94:                                               ; preds = %93, %69
  br label %19, !llvm.loop !8

95:                                               ; preds = %92, %24
  %96 = load ptr, ptr %4, align 8
  %97 = call i32 @closedir(ptr noundef %96)
  %98 = load i32, ptr %8, align 4
  store i32 %98, ptr %2, align 4
  store i32 1, ptr %10, align 4
  br label %99

99:                                               ; preds = %95, %14
  call void @llvm.lifetime.end.p0(i64 144, ptr %9) #10
  call void @llvm.lifetime.end.p0(i64 4, ptr %8) #10
  call void @llvm.lifetime.end.p0(i64 4096, ptr %7) #10
  call void @llvm.lifetime.end.p0(i64 8, ptr %6) #10
  call void @llvm.lifetime.end.p0(i64 8, ptr %5) #10
  call void @llvm.lifetime.end.p0(i64 8, ptr %4) #10
  %100 = load i32, ptr %2, align 4
  ret i32 %100
}