; Function Attrs: nounwind uwtable
define dso_local range(i32 -1, 1) i32 @callerid_get_own_netinfo(ptr noundef %0) #0 {
  %2 = alloca i64, align 8
  %3 = alloca [4096 x i8], align 16
  %4 = alloca %struct.stat, align 8
  call void @llvm.lifetime.start.p0(i64 4096, ptr nonnull %3) #11
  call void @llvm.lifetime.start.p0(i64 144, ptr nonnull %4) #11
  %5 = tail call ptr @opendir(ptr noundef nonnull @.str.4)
  %6 = icmp eq ptr %5, null
  br i1 %6, label %10, label %.preheader

.preheader:                                       ; preds = %1
  %7 = tail call ptr @readdir(ptr noundef nonnull %5) #11
  %.not19 = icmp eq ptr %7, null
  br i1 %.not19, label %.loopexit, label %.lr.ph

.lr.ph:                                           ; preds = %.preheader
  %8 = getelementptr inbounds nuw i8, ptr %4, i64 24
  %9 = getelementptr inbounds nuw i8, ptr %4, i64 8
  br label %12

10:                                               ; preds = %1
  %11 = tail call i32 (ptr, ...) @error(ptr noundef nonnull @.str.5, ptr noundef nonnull @.str.4) #11
  br label %44

12:                                               ; preds = %.lr.ph, %.backedge
  %13 = phi ptr [ %7, %.lr.ph ], [ %29, %.backedge ]
  %14 = getelementptr inbounds nuw i8, ptr %13, i64 19
  %15 = call i32 @xstrncmp(ptr noundef nonnull %14, ptr noundef nonnull @.str.6, i64 noundef 1) #11
  %.not15 = icmp eq i32 %15, 0
  br i1 %.not15, label %.backedge, label %16

16:                                               ; preds = %12
  %17 = call i32 (ptr, i64, ptr, ...) @snprintf(ptr noundef nonnull dereferenceable(1) %3, i64 noundef 4096, ptr noundef nonnull @.str.7, ptr noundef nonnull @.str.4, ptr noundef nonnull %14) #11
  %18 = icmp sgt i32 %17, 4095
  br i1 %18, label %.backedge, label %19

19:                                               ; preds = %16
  %20 = call i32 @get_log_level() #11
  %21 = icmp sgt i32 %20, 6
  br i1 %21, label %22, label %23

22:                                               ; preds = %19
  call void (i32, ptr, ...) @log_var(i32 noundef 7, ptr noundef nonnull @.str.8, ptr noundef nonnull %3) #11
  br label %23

23:                                               ; preds = %22, %19
  %24 = call i32 @stat(ptr noundef nonnull %3, ptr noundef nonnull %4) #11
  %.not16 = icmp eq i32 %24, 0
  br i1 %.not16, label %30, label %25

25:                                               ; preds = %23
  %26 = call i32 @get_log_level() #11
  %27 = icmp sgt i32 %26, 6
  br i1 %27, label %28, label %.backedge

28:                                               ; preds = %25
  call void (i32, ptr, ...) @log_var(i32 noundef 7, ptr noundef nonnull @.str.9, ptr noundef nonnull %3) #11
  br label %.backedge

.backedge:                                        ; preds = %30, %callerid_find_conn_by_inode.exit, %25, %28, %12, %16
  %29 = call ptr @readdir(ptr noundef nonnull %5) #11
  %.not = icmp eq ptr %29, null
  br i1 %.not, label %.loopexit, label %12, !llvm.loop !8

30:                                               ; preds = %23
  %31 = load i32, ptr %8, align 8
  %32 = and i32 %31, 61440
  %33 = icmp eq i32 %32, 49152
  br i1 %33, label %34, label %.backedge

34:                                               ; preds = %30
  %35 = call i32 @get_log_level() #11
  %36 = icmp sgt i32 %35, 6
  br i1 %36, label %37, label %38

37:                                               ; preds = %34
  call void (i32, ptr, ...) @log_var(i32 noundef 7, ptr noundef nonnull @.str.10, ptr noundef nonnull %3) #11
  br label %38

38:                                               ; preds = %37, %34
  %39 = load i64, ptr %9, align 8
  call void @llvm.lifetime.start.p0(i64 8, ptr nonnull %2)
  store i64 %39, ptr %2, align 8
  %40 = call fastcc i32 @_find_match_in_tcp_file(ptr noundef %0, ptr noundef nonnull %2, i32 noundef 2, ptr noundef nonnull @.str, ptr noundef nonnull @_match_inode)
  %41 = icmp eq i32 %40, 0
  br i1 %41, label %callerid_find_conn_by_inode.exit.thread, label %callerid_find_conn_by_inode.exit

callerid_find_conn_by_inode.exit.thread:          ; preds = %38
  call void @llvm.lifetime.end.p0(i64 8, ptr nonnull %2)
  br label %.loopexit

callerid_find_conn_by_inode.exit:                 ; preds = %38
  %42 = call fastcc i32 @_find_match_in_tcp_file(ptr noundef %0, ptr noundef nonnull %2, i32 noundef 10, ptr noundef nonnull @.str.1, ptr noundef nonnull @_match_inode)
  %.not18 = icmp eq i32 %42, 0
  call void @llvm.lifetime.end.p0(i64 8, ptr nonnull %2)
  br i1 %.not18, label %.loopexit, label %.backedge

.loopexit:                                        ; preds = %.backedge, %callerid_find_conn_by_inode.exit, %.preheader, %callerid_find_conn_by_inode.exit.thread
  %.1 = phi i32 [ 0, %callerid_find_conn_by_inode.exit.thread ], [ -1, %.preheader ], [ -1, %.backedge ], [ 0, %callerid_find_conn_by_inode.exit ]
  %43 = call i32 @closedir(ptr noundef nonnull %5)
  br label %44

44:                                               ; preds = %.loopexit, %10
  %.011 = phi i32 [ -1, %10 ], [ %.1, %.loopexit ]
  call void @llvm.lifetime.end.p0(i64 144, ptr nonnull %4) #11
  call void @llvm.lifetime.end.p0(i64 4096, ptr nonnull %3) #11
  ret i32 %.011
}